; Function Attrs: nounwind uwtable
define internal fastcc void @Abc_NtkMiterPrint(ptr noundef %0, ptr noundef %1, i64 noundef %2, i32 noundef %3) unnamed_addr #0 {
  %5 = alloca %struct.timespec, align 8
  %.not = icmp eq i32 %3, 0
  br i1 %.not, label %27, label %6

6:                                                ; preds = %4
  %7 = getelementptr i8, ptr %0, i64 124
  %.val = load i32, ptr %7, align 4, !tbaa !26
  %.val7 = load i32, ptr %0, align 8, !tbaa !76
  %.not8 = icmp eq i32 %.val7, 3
  br i1 %.not8, label %8, label %10

8:                                                ; preds = %6
  %9 = tail call i32 @Abc_AigLevel(ptr noundef nonnull %0) #15
  br label %12

10:                                               ; preds = %6
  %11 = tail call i32 @Abc_NtkLevel(ptr noundef nonnull %0) #15
  br label %12

12:                                               ; preds = %10, %8
  %13 = phi i32 [ %9, %8 ], [ %11, %10 ]
  %14 = tail call i32 (ptr, ...) @printf(ptr noundef nonnull dereferenceable(1) @.str.12, i32 noundef %.val, i32 noundef %13)
  tail call void (i32, ptr, ...) @Abc_Print(i32 poison, ptr noundef nonnull @.str.13, ptr noundef %1)
  call void @llvm.lifetime.start.p0(i64 16, ptr nonnull %5) #15
  %15 = call i32 @clock_gettime(i32 noundef 1, ptr noundef nonnull %5) #15
  %16 = icmp slt i32 %15, 0
  br i1 %16, label %Abc_Clock.exit, label %17

17:                                               ; preds = %12
  %18 = load i64, ptr %5, align 8, !tbaa !23
  %19 = mul nsw i64 %18, 1000000
  %20 = getelementptr inbounds nuw i8, ptr %5, i64 8
  %21 = load i64, ptr %20, align 8, !tbaa !25
  %22 = sdiv i64 %21, 1000
  %23 = add nsw i64 %22, %19
  br label %Abc_Clock.exit

Abc_Clock.exit:                                   ; preds = %12, %17
  %.0.i = phi i64 [ %23, %17 ], [ -1, %12 ]
  call void @llvm.lifetime.end.p0(i64 16, ptr nonnull %5) #15
  %24 = sub nsw i64 %.0.i, %2
  %25 = sitofp i64 %24 to double
  %26 = fdiv double %25, 1.000000e+06
  call void (i32, ptr, ...) @Abc_Print(i32 poison, ptr noundef nonnull @.str.14, double noundef %26)
  br label %27

27:                                               ; preds = %4, %Abc_Clock.exit
  ret void
}